; ModuleID = '60/1004.c'
source_filename = "60/1004.c"
target datalayout = "e-m:e-p270:32:32-p271:32:32-p272:64:64-i64:64-f80:128-n8:16:32:64-S128"
target triple = "x86_64-pc-linux-gnu"

@.str = private unnamed_addr constant [3 x i8] c"%d\00", align 1
@.str.1 = private unnamed_addr constant [7 x i8] c"%d %d\0A\00", align 1
@.str.2 = private unnamed_addr constant [7 x i8] c"empty\0A\00", align 1

; Function Attrs: noinline nounwind uwtable
define dso_local i32 @main(i32 %0, i8** %1) #0 {
  %3 = alloca i32, align 4
  %4 = alloca i32, align 4
  %5 = alloca i8**, align 8
  %6 = alloca i32, align 4
  %7 = alloca i32, align 4
  %8 = alloca i32, align 4
  %9 = alloca i32, align 4
  %10 = alloca i32, align 4
  %11 = alloca i32, align 4
  %12 = alloca i32, align 4
  %13 = alloca i32, align 4
  store i32 0, i32* %3, align 4
  store i32 %0, i32* %4, align 4
  store i8** %1, i8*** %5, align 8
  store i32 0, i32* %10, align 4
  store i32 0, i32* %12, align 4
  store i32 0, i32* %13, align 4
  %14 = call i32 (i8*, ...) @__isoc99_scanf(i8* getelementptr inbounds ([3 x i8], [3 x i8]* @.str, i64 0, i64 0), i32* %6)
  store i32 3, i32* %7, align 4
  br label %15

15:                                               ; preds = %67, %2
  %16 = load i32, i32* %7, align 4
  %17 = load i32, i32* %6, align 4
  %18 = add nsw i32 %17, 1
  %19 = icmp slt i32 %16, %18
  br i1 %19, label %20, label %70

20:                                               ; preds = %15
  %21 = load i32, i32* %7, align 4
  %22 = sitofp i32 %21 to double
  %23 = call double @pow(double %22, double 5.000000e-01) #3
  %24 = fptosi double %23 to i32
  store i32 %24, i32* %9, align 4
  store i32 2, i32* %8, align 4
  br label %25

25:                                               ; preds = %39, %20
  %26 = load i32, i32* %8, align 4
  %27 = load i32, i32* %9, align 4
  %28 = add nsw i32 %27, 1
  %29 = icmp slt i32 %26, %28
  br i1 %29, label %30, label %42

30:                                               ; preds = %25
  %31 = load i32, i32* %7, align 4
  %32 = load i32, i32* %8, align 4
  %33 = srem i32 %31, %32
  %34 = icmp eq i32 %33, 0
  br i1 %34, label %35, label %38

35:                                               ; preds = %30
  %36 = load i32, i32* %10, align 4
  %37 = add nsw i32 %36, 1
  store i32 %37, i32* %10, align 4
  br label %38

38:                                               ; preds = %35, %30
  br label %39

39:                                               ; preds = %38
  %40 = load i32, i32* %8, align 4
  %41 = add nsw i32 %40, 1
  store i32 %41, i32* %8, align 4
  br label %25

42:                                               ; preds = %25
  %43 = load i32, i32* %10, align 4
  %44 = icmp eq i32 %43, 0
  br i1 %44, label %45, label %66

45:                                               ; preds = %42
  %46 = load i32, i32* %12, align 4
  %47 = add nsw i32 %46, 1
  store i32 %47, i32* %12, align 4
  %48 = load i32, i32* %12, align 4
  %49 = icmp eq i32 %48, 1
  br i1 %49, label %50, label %52

50:                                               ; preds = %45
  %51 = load i32, i32* %7, align 4
  store i32 %51, i32* %11, align 4
  br label %64

52:                                               ; preds = %45
  %53 = load i32, i32* %7, align 4
  %54 = load i32, i32* %11, align 4
  %55 = sub nsw i32 %53, %54
  %56 = icmp eq i32 %55, 2
  br i1 %56, label %57, label %61

57:                                               ; preds = %52
  %58 = load i32, i32* %11, align 4
  %59 = load i32, i32* %7, align 4
  %60 = call i32 (i8*, ...) @printf(i8* getelementptr inbounds ([7 x i8], [7 x i8]* @.str.1, i64 0, i64 0), i32 %58, i32 %59)
  br label %61

61:                                               ; preds = %57, %52
  %62 = load i32, i32* %13, align 4
  %63 = add nsw i32 %62, 1
  store i32 %63, i32* %13, align 4
  br label %64

64:                                               ; preds = %61, %50
  %65 = load i32, i32* %7, align 4
  store i32 %65, i32* %11, align 4
  br label %66

66:                                               ; preds = %64, %42
  store i32 0, i32* %10, align 4
  br label %67

67:                                               ; preds = %66
  %68 = load i32, i32* %7, align 4
  %69 = add nsw i32 %68, 1
  store i32 %69, i32* %7, align 4
  br label %15

70:                                               ; preds = %15
  %71 = load i32, i32* %13, align 4
  %72 = icmp eq i32 %71, 0
  br i1 %72, label %79, label %73

73:                                               ; preds = %70
  %74 = load i32, i32* %6, align 4
  %75 = icmp eq i32 %74, 2
  br i1 %75, label %79, label %76

76:                                               ; preds = %73
  %77 = load i32, i32* %6, align 4
  %78 = icmp eq i32 %77, 3
  br i1 %78, label %79, label %81

79:                                               ; preds = %76, %73, %70
  %80 = call i32 (i8*, ...) @printf(i8* getelementptr inbounds ([7 x i8], [7 x i8]* @.str.2, i64 0, i64 0))
  br label %81

81:                                               ; preds = %79, %76
  ret i32 0
}

declare dso_local i32 @__isoc99_scanf(i8*, ...) #1

; Function Attrs: nounwind
declare dso_local double @pow(double, double) #2

declare dso_local i32 @printf(i8*, ...) #1


!llvm.module.flags = !{!0}
!llvm.ident = !{!1}

!0 = !{i32 1, !"wchar_size", i32 4}
!1 = !{!"clang version 10.0.0-4ubuntu1 "}
